target datalayout = "e-m:e-p270:32:32-p271:32:32-p272:64:64-i64:64-i128:128-f80:128-n8:16:32:64-S128"
target triple = "x86_64-unknown-linux-gnu"

%struct.MemoryRegion = type { %struct.Object, i8, i8, i8, i8, i8, i8, i8, i8, i8, i8, ptr, ptr, ptr, ptr, ptr, ptr, i32, i128, i64, ptr, i64, i8, i8, i8, i8, i8, ptr, i64, i32, %union.anon, %union.anon.0, %union.anon.1, ptr, i32, ptr, ptr, i8 }
%struct.Object = type { ptr, ptr, ptr, i32, ptr }
%union.anon = type { %struct.QTailQLink }
%struct.QTailQLink = type { ptr, ptr }
%union.anon.0 = type { %struct.QTailQLink }
%union.anon.1 = type { %struct.QTailQLink }
%struct.VFIOPCIDevice = type { %struct.PCIDevice, %struct.VFIODevice, %struct.VFIOINTx, i32, ptr, i64, i32, i64, ptr, i32, ptr, ptr, i32, i32, [6 x %struct.VFIOBAR], ptr, ptr, %struct.PCIHostDeviceAddress, %struct.QemuUUID, %struct.EventNotifier, %struct.EventNotifier, ptr, i32, i32, i32, i32, i32, i32, i32, i32, i32, i32, i32, i8, i8, i8, i8, i8, i8, i8, i8, i8, i8, i8, i8, i8, i8, i32, i8, i8, ptr, %struct.Notifier }
%struct.PCIDevice = type { %struct.DeviceState, i8, i8, ptr, ptr, ptr, ptr, ptr, i32, %struct.PCIReqIDCache, [64 x i8], [7 x %struct.PCIIORegion], %struct.AddressSpace, %struct.MemoryRegion, %struct.MemoryRegion, ptr, ptr, [3 x ptr], i8, i8, i32, i8, i32, ptr, ptr, ptr, ptr, ptr, ptr, %struct.MemoryRegion, %struct.MemoryRegion, %struct.MemoryRegion, ptr, i8, i32, i8, %struct.PCIExpressDevice, ptr, ptr, i32, i8, %struct.MemoryRegion, i32, ptr, ptr, ptr, ptr, ptr, i32 }
%struct.DeviceState = type { %struct.Object, ptr, ptr, i8, i8, i64, ptr, i32, i8, ptr, %struct.NamedGPIOListHead, %struct.NamedClockListHead, %struct.BusStateHead, i32, i32, i32, %struct.ResettableState, ptr, %struct.MemReentrancyGuard }
%struct.NamedGPIOListHead = type { ptr }
%struct.NamedClockListHead = type { ptr }
%struct.BusStateHead = type { ptr }
%struct.ResettableState = type { i32, i8, i8 }
%struct.MemReentrancyGuard = type { i8 }
%struct.PCIReqIDCache = type { ptr, i32 }
%struct.PCIIORegion = type { i64, i64, i8, ptr, ptr }
%struct.AddressSpace = type { %struct.rcu_head, ptr, ptr, ptr, i32, i32, ptr, %union.anon.4, %union.anon.5 }
%struct.rcu_head = type { ptr, ptr }
%union.anon.4 = type { %struct.QTailQLink }
%union.anon.5 = type { %struct.QTailQLink }
%struct.PCIExpressDevice = type { i8, i8, i8, i16, %struct.PCIEAERLog, i16, i16, i16, %struct.PCIESriovPF, %struct.PCIESriovVF }
%struct.PCIEAERLog = type { i16, i16, ptr }
%struct.PCIESriovPF = type { i16, [7 x i8], ptr, ptr }
%struct.PCIESriovVF = type { ptr, i16 }
%struct.VFIODevice = type { %struct.anon.6, %struct.anon.7, %struct.anon.8, ptr, ptr, ptr, ptr, ptr, i32, i32, i8, i8, i8, i8, i32, ptr, i32, i32, i32, ptr, ptr, i32, i8, i8 }
%struct.anon.6 = type { ptr, ptr }
%struct.anon.7 = type { ptr, ptr }
%struct.anon.8 = type { ptr, ptr }
%struct.VFIOINTx = type { i8, i8, i8, %struct.EventNotifier, %struct.EventNotifier, %struct.PCIINTxRoute, i32, ptr }
%struct.PCIINTxRoute = type { i32, i32 }
%struct.VFIOBAR = type { %struct.VFIORegion, ptr, i64, i8, i8, i8, %struct.anon.9 }
%struct.VFIORegion = type { ptr, i64, ptr, i64, i32, i32, ptr, i8 }
%struct.anon.9 = type { ptr }
%struct.PCIHostDeviceAddress = type { i32, i32, i32, i32 }
%struct.QemuUUID = type { %union.anon.10 }
%union.anon.10 = type { %struct.anon.11 }
%struct.anon.11 = type { i32, i16, i16, i8, i8, [6 x i8] }
%struct.EventNotifier = type { i32, i32, i8 }
%struct.Notifier = type { ptr, %struct.anon.12 }
%struct.anon.12 = type { ptr, ptr }

@.str.187 = private unnamed_addr constant [33 x i8] c"vfio: Failed to read BAR %d (%m)\00", align 1

; Function Attrs: nounwind sspstrong uwtable
define internal i32 @le32_to_cpu(i32 noundef %v) #0 {
entry:
  %v.addr = alloca i32, align 4
  store i32 %v, ptr %v.addr, align 4
  %0 = load i32, ptr %v.addr, align 4
  ret i32 %0
}

; Function Attrs: nounwind sspstrong uwtable
define internal void @vfio_bar_prepare(ptr noundef %vdev, i32 noundef %nr) #0 {
entry:
  %vdev.addr = alloca ptr, align 8
  %nr.addr = alloca i32, align 4
  %bar = alloca ptr, align 8
  %pci_bar = alloca i32, align 4
  %ret = alloca i32, align 4
  store ptr %vdev, ptr %vdev.addr, align 8
  store i32 %nr, ptr %nr.addr, align 4
  %0 = load ptr, ptr %vdev.addr, align 8
  %bars = getelementptr inbounds %struct.VFIOPCIDevice, ptr %0, i32 0, i32 14
  %1 = load i32, ptr %nr.addr, align 4
  %idxprom = sext i32 %1 to i64
  %arrayidx = getelementptr [6 x %struct.VFIOBAR], ptr %bars, i64 0, i64 %idxprom
  store ptr %arrayidx, ptr %bar, align 8
  %2 = load ptr, ptr %bar, align 8
  %region = getelementptr inbounds %struct.VFIOBAR, ptr %2, i32 0, i32 0
  %size = getelementptr inbounds %struct.VFIORegion, ptr %region, i32 0, i32 3
  %3 = load i64, ptr %size, align 8
  %tobool = icmp ne i64 %3, 0
  br i1 %tobool, label %if.end, label %if.then

if.then:                                          ; preds = %entry
  br label %return

if.end:                                           ; preds = %entry
  %4 = load ptr, ptr %vdev.addr, align 8
  %vbasedev = getelementptr inbounds %struct.VFIOPCIDevice, ptr %4, i32 0, i32 1
  %fd = getelementptr inbounds %struct.VFIODevice, ptr %vbasedev, i32 0, i32 8
  %5 = load i32, ptr %fd, align 8
  %6 = load ptr, ptr %vdev.addr, align 8
  %config_offset = getelementptr inbounds %struct.VFIOPCIDevice, ptr %6, i32 0, i32 5
  %7 = load i64, ptr %config_offset, align 8
  %add = add i64 %7, 16
  %8 = load i32, ptr %nr.addr, align 4
  %mul = mul i32 4, %8
  %conv = sext i32 %mul to i64
  %add1 = add i64 %add, %conv
  %call = call i64 @pread64(i32 noundef %5, ptr noundef %pci_bar, i64 noundef 4, i64 noundef %add1)
  %conv2 = trunc i64 %call to i32
  store i32 %conv2, ptr %ret, align 4
  %9 = load i32, ptr %ret, align 4
  %conv3 = sext i32 %9 to i64
  %cmp = icmp ne i64 %conv3, 4
  br i1 %cmp, label %if.then5, label %if.end6

if.then5:                                         ; preds = %if.end
  %10 = load i32, ptr %nr.addr, align 4
  call void (ptr, ...) @error_report(ptr noundef @.str.187, i32 noundef %10)
  br label %return

if.end6:                                          ; preds = %if.end
  %11 = load i32, ptr %pci_bar, align 4
  %call7 = call i32 @le32_to_cpu(i32 noundef %11)
  store i32 %call7, ptr %pci_bar, align 4
  %12 = load i32, ptr %pci_bar, align 4
  %and = and i32 %12, 1
  %tobool8 = icmp ne i32 %and, 0
  %13 = load ptr, ptr %bar, align 8
  %ioport = getelementptr inbounds %struct.VFIOBAR, ptr %13, i32 0, i32 4
  %frombool = zext i1 %tobool8 to i8
  store i8 %frombool, ptr %ioport, align 1
  %14 = load ptr, ptr %bar, align 8
  %ioport9 = getelementptr inbounds %struct.VFIOBAR, ptr %14, i32 0, i32 4
  %15 = load i8, ptr %ioport9, align 1
  %tobool10 = trunc i8 %15 to i1
  br i1 %tobool10, label %cond.true, label %cond.false

cond.true:                                        ; preds = %if.end6
  br label %cond.end

cond.false:                                       ; preds = %if.end6
  %16 = load i32, ptr %pci_bar, align 4
  %and12 = and i32 %16, 4
  br label %cond.end

cond.end:                                         ; preds = %cond.false, %cond.true
  %cond = phi i32 [ 0, %cond.true ], [ %and12, %cond.false ]
  %tobool13 = icmp ne i32 %cond, 0
  %17 = load ptr, ptr %bar, align 8
  %mem64 = getelementptr inbounds %struct.VFIOBAR, ptr %17, i32 0, i32 5
  %frombool14 = zext i1 %tobool13 to i8
  store i8 %frombool14, ptr %mem64, align 2
  %18 = load i32, ptr %pci_bar, align 4
  %conv15 = zext i32 %18 to i64
  %19 = load ptr, ptr %bar, align 8
  %ioport16 = getelementptr inbounds %struct.VFIOBAR, ptr %19, i32 0, i32 4
  %20 = load i8, ptr %ioport16, align 1
  %tobool17 = trunc i8 %20 to i1
  %cond19 = select i1 %tobool17, i64 3, i64 15
  %and20 = and i64 %conv15, %cond19
  %conv21 = trunc i64 %and20 to i8
  %21 = load ptr, ptr %bar, align 8
  %type = getelementptr inbounds %struct.VFIOBAR, ptr %21, i32 0, i32 3
  store i8 %conv21, ptr %type, align 8
  %22 = load ptr, ptr %bar, align 8
  %region22 = getelementptr inbounds %struct.VFIOBAR, ptr %22, i32 0, i32 0
  %size23 = getelementptr inbounds %struct.VFIORegion, ptr %region22, i32 0, i32 3
  %23 = load i64, ptr %size23, align 8
  %24 = load ptr, ptr %bar, align 8
  %size24 = getelementptr inbounds %struct.VFIOBAR, ptr %24, i32 0, i32 2
  store i64 %23, ptr %size24, align 8
  br label %return

return:                                           ; preds = %cond.end, %if.then5, %if.then
  ret void
}

; Function Attrs: nounwind sspstrong uwtable
define internal void @vfio_bars_prepare(ptr noundef %vdev) #0 {
entry:
  %vdev.addr = alloca ptr, align 8
  %i = alloca i32, align 4
  store ptr %vdev, ptr %vdev.addr, align 8
  store i32 0, ptr %i, align 4
  br label %for.cond

for.cond:                                         ; preds = %for.inc, %entry
  %0 = load i32, ptr %i, align 4
  %cmp = icmp slt i32 %0, 6
  br i1 %cmp, label %for.body, label %for.end

for.body:                                         ; preds = %for.cond
  %1 = load ptr, ptr %vdev.addr, align 8
  %2 = load i32, ptr %i, align 4
  call void @vfio_bar_prepare(ptr noundef %1, i32 noundef %2)
  br label %for.inc

for.inc:                                          ; preds = %for.body
  %3 = load i32, ptr %i, align 4
  %inc = add i32 %3, 1
  store i32 %inc, ptr %i, align 4
  br label %for.cond, !llvm.loop !31

for.end:                                          ; preds = %for.cond
  ret void
}