; Function Attrs: nounwind sspstrong uwtable
define internal fastcc void @vfio_bars_prepare(ptr noundef captures(none) %vdev) unnamed_addr #0 {
entry:
  %pci_bar.i = alloca i32, align 4
  %bars.i = getelementptr inbounds nuw i8, ptr %vdev, i64 2888
  %fd.i = getelementptr inbounds nuw i8, ptr %vdev, i64 2696
  %config_offset.i = getelementptr inbounds nuw i8, ptr %vdev, i64 2824
  br label %for.body

for.body:                                         ; preds = %entry, %vfio_bar_prepare.exit
  %indvars.iv = phi i64 [ 0, %entry ], [ %indvars.iv.next, %vfio_bar_prepare.exit ]
  call void @llvm.lifetime.start.p0(i64 4, ptr nonnull %pci_bar.i)
  %arrayidx.i = getelementptr [6 x %struct.VFIOBAR], ptr %bars.i, i64 0, i64 %indvars.iv
  %size.i = getelementptr inbounds nuw i8, ptr %arrayidx.i, i64 24
  %0 = load i64, ptr %size.i, align 8
  %tobool.not.i = icmp eq i64 %0, 0
  br i1 %tobool.not.i, label %vfio_bar_prepare.exit, label %if.end.i

if.end.i:                                         ; preds = %for.body
  %1 = load i32, ptr %fd.i, align 8
  %2 = load i64, ptr %config_offset.i, align 8
  %3 = shl nuw nsw i64 %indvars.iv, 2
  %4 = add nuw nsw i64 %3, 16
  %add1.i = add i64 %2, %4
  %call.i = call i64 @pread64(i32 noundef %1, ptr noundef nonnull %pci_bar.i, i64 noundef 4, i64 noundef %add1.i) #23
  %sext.mask.i = and i64 %call.i, 4294967295
  %cmp.not.i = icmp eq i64 %sext.mask.i, 4
  br i1 %cmp.not.i, label %if.end6.i, label %if.then5.i

if.then5.i:                                       ; preds = %if.end.i
  %5 = trunc nuw nsw i64 %indvars.iv to i32
  call void (ptr, ...) @error_report(ptr noundef nonnull @.str.187, i32 noundef range(i32 -2147483648, 6) %5) #23
  br label %vfio_bar_prepare.exit

if.end6.i:                                        ; preds = %if.end.i
  %6 = load i32, ptr %pci_bar.i, align 4
  %ioport.i = getelementptr inbounds nuw i8, ptr %arrayidx.i, i64 73
  %7 = trunc i32 %6 to i8
  %frombool.i = and i8 %7, 1
  store i8 %frombool.i, ptr %ioport.i, align 1
  %8 = and i32 %6, 5
  %tobool13.i = icmp eq i32 %8, 4
  %mem64.i = getelementptr inbounds nuw i8, ptr %arrayidx.i, i64 74
  %frombool14.i = zext i1 %tobool13.i to i8
  store i8 %frombool14.i, ptr %mem64.i, align 2
  %tobool17.i = trunc i32 %6 to i1
  %cond19.i = select i1 %tobool17.i, i8 3, i8 15
  %and20.i = and i8 %cond19.i, %7
  %type.i = getelementptr inbounds nuw i8, ptr %arrayidx.i, i64 72
  store i8 %and20.i, ptr %type.i, align 8
  %9 = load i64, ptr %size.i, align 8
  %size24.i = getelementptr inbounds nuw i8, ptr %arrayidx.i, i64 64
  store i64 %9, ptr %size24.i, align 8
  br label %vfio_bar_prepare.exit

vfio_bar_prepare.exit:                            ; preds = %for.body, %if.then5.i, %if.end6.i
  call void @llvm.lifetime.end.p0(i64 4, ptr nonnull %pci_bar.i)
  %indvars.iv.next = add nuw nsw i64 %indvars.iv, 1
  %exitcond.not = icmp eq i64 %indvars.iv.next, 6
  br i1 %exitcond.not, label %for.end, label %for.body, !llvm.loop !35

for.end:                                          ; preds = %vfio_bar_prepare.exit
  ret void
}